; Function Attrs: mustprogress uwtable
define void @_ZN7mitsuba10PropertiesC2Ev(ptr nocapture noundef nonnull writeonly align 8 dereferenceable(8) %0) unnamed_addr #0 align 2 personality ptr @__gxx_personality_v0 {
  %2 = tail call noalias noundef nonnull dereferenceable(72) ptr @_Znwm(i64 noundef 72) #27
  %3 = getelementptr inbounds i8, ptr %2, i64 8
  tail call void @llvm.memset.p0.i64(ptr noundef nonnull align 16 dereferenceable(32) %2, i8 0, i64 32, i1 false)
  store ptr %3, ptr %2, align 8
  %4 = getelementptr inbounds i8, ptr %2, i64 24
  tail call void @llvm.memset.p0.i64(ptr noundef nonnull align 8 dereferenceable(48) %4, i8 0, i64 48, i1 false)
  store ptr %2, ptr %0, align 8
  ret void
}